target datalayout = "e-m:e-p270:32:32-p271:32:32-p272:64:64-i64:64-i128:128-f80:128-n8:16:32:64-S128"
target triple = "x86_64-pc-linux-gnu"

%struct.H5VL_optional_args_t = type { i32, ptr }

@H5M_init_g = global i8 0, align 1
@H5_libterm_g = external global i8, align 1
@.str = private unnamed_addr constant [97 x i8] c"generated/home/dtcxzyw/WorkSpace/Projects/compilers/llvm-opt-benchmark/bench/hdf5/hdf5/src/H5M.c\00", align 1
@H5E_MAP_g = external global i64, align 8
@H5P_LST_DATASET_XFER_ID_g = external global i64, align 8
@__func__.H5M__close_cb = private unnamed_addr constant [14 x i8] c"H5M__close_cb\00", align 1
@H5E_CLOSEERROR_g = external global i64, align 8
@.str.4 = private unnamed_addr constant [20 x i8] c"unable to close map\00", align 1
@H5E_CANTDEC_g = external global i64, align 8
@.str.5 = private unnamed_addr constant [26 x i8] c"unable to free VOL object\00", align 1

; Function Attrs: nounwind uwtable
define internal i32 @H5M__close_cb(ptr noundef %0, ptr noundef %1) #0 {
  %3 = alloca ptr, align 8
  %4 = alloca ptr, align 8
  %5 = alloca %struct.H5VL_optional_args_t, align 8
  %6 = alloca i32, align 4
  %7 = alloca i8, align 1
  store ptr %0, ptr %3, align 8, !tbaa !13
  store ptr %1, ptr %4, align 8, !tbaa !16
  call void @llvm.lifetime.start.p0(i64 16, ptr %5) #4
  call void @llvm.lifetime.start.p0(i64 4, ptr %6) #4
  store i32 0, ptr %6, align 4, !tbaa !3
  call void @llvm.lifetime.start.p0(i64 1, ptr %7) #4
  store i8 0, ptr %7, align 1, !tbaa !7
  %8 = load i8, ptr @H5M_init_g, align 1, !tbaa !7, !range !9, !noundef !10
  %9 = trunc i8 %8 to i1
  br i1 %9, label %14, label %10

10:                                               ; preds = %2
  %11 = load i8, ptr @H5_libterm_g, align 1, !tbaa !7, !range !9, !noundef !10
  %12 = trunc i8 %11 to i1
  %13 = xor i1 %12, true
  br label %14

14:                                               ; preds = %10, %2
  %15 = phi i1 [ true, %2 ], [ %13, %10 ]
  %16 = xor i1 %15, true
  %17 = xor i1 %16, true
  %18 = zext i1 %17 to i32
  %19 = sext i32 %18 to i64
  %20 = call i64 @llvm.expect.i64(i64 %19, i64 1)
  %21 = icmp ne i64 %20, 0
  br i1 %21, label %22, label %74

22:                                               ; preds = %14
  %23 = getelementptr inbounds nuw %struct.H5VL_optional_args_t, ptr %5, i32 0, i32 0
  store i32 9, ptr %23, align 8, !tbaa !17
  %24 = getelementptr inbounds nuw %struct.H5VL_optional_args_t, ptr %5, i32 0, i32 1
  store ptr null, ptr %24, align 8, !tbaa !19
  %25 = load ptr, ptr %3, align 8, !tbaa !13
  %26 = load i64, ptr @H5P_LST_DATASET_XFER_ID_g, align 8, !tbaa !11
  %27 = load ptr, ptr %4, align 8, !tbaa !16
  %28 = call i32 @H5VL_optional(ptr noundef %25, ptr noundef %5, i64 noundef %26, ptr noundef %27)
  %29 = icmp slt i32 %28, 0
  br i1 %29, label %30, label %49

30:                                               ; preds = %22
  br label %31

31:                                               ; preds = %30
  br label %32

32:                                               ; preds = %31
  br label %33

33:                                               ; preds = %32
  %34 = load i64, ptr @H5E_MAP_g, align 8, !tbaa !11
  %35 = load i64, ptr @H5E_CLOSEERROR_g, align 8, !tbaa !11
  %36 = call i32 (ptr, ptr, i32, i64, i64, ptr, ...) @H5E_printf_stack(ptr noundef @.str, ptr noundef @__func__.H5M__close_cb, i32 noundef 226, i64 noundef %34, i64 noundef %35, ptr noundef @.str.4)
  br label %37

37:                                               ; preds = %33
  br label %38

38:                                               ; preds = %37
  store i8 1, ptr %7, align 1, !tbaa !7
  %39 = load i8, ptr %7, align 1, !tbaa !7, !range !9, !noundef !10
  %40 = trunc i8 %39 to i1
  %41 = zext i1 %40 to i8
  store i8 %41, ptr %7, align 1, !tbaa !7
  br label %42

42:                                               ; preds = %38
  br label %43

43:                                               ; preds = %42
  br label %44

44:                                               ; preds = %43
  store i32 -1, ptr %6, align 4, !tbaa !3
  br label %73

45:                                               ; No predecessors!
  br label %46

46:                                               ; preds = %45
  br label %47

47:                                               ; preds = %46
  br label %48

48:                                               ; preds = %47
  br label %49

49:                                               ; preds = %48, %22
  %50 = load ptr, ptr %3, align 8, !tbaa !13
  %51 = call i32 @H5VL_free_object(ptr noundef %50)
  %52 = icmp slt i32 %51, 0
  br i1 %52, label %53, label %72

53:                                               ; preds = %49
  br label %54

54:                                               ; preds = %53
  br label %55

55:                                               ; preds = %54
  br label %56

56:                                               ; preds = %55
  %57 = load i64, ptr @H5E_MAP_g, align 8, !tbaa !11
  %58 = load i64, ptr @H5E_CANTDEC_g, align 8, !tbaa !11
  %59 = call i32 (ptr, ptr, i32, i64, i64, ptr, ...) @H5E_printf_stack(ptr noundef @.str, ptr noundef @__func__.H5M__close_cb, i32 noundef 230, i64 noundef %57, i64 noundef %58, ptr noundef @.str.5)
  br label %60

60:                                               ; preds = %56
  br label %61

61:                                               ; preds = %60
  store i8 1, ptr %7, align 1, !tbaa !7
  %62 = load i8, ptr %7, align 1, !tbaa !7, !range !9, !noundef !10
  %63 = trunc i8 %62 to i1
  %64 = zext i1 %63 to i8
  store i8 %64, ptr %7, align 1, !tbaa !7
  br label %65

65:                                               ; preds = %61
  br label %66

66:                                               ; preds = %65
  br label %67

67:                                               ; preds = %66
  store i32 -1, ptr %6, align 4, !tbaa !3
  br label %73

68:                                               ; No predecessors!
  br label %69

69:                                               ; preds = %68
  br label %70

70:                                               ; preds = %69
  br label %71

71:                                               ; preds = %70
  br label %72

72:                                               ; preds = %71, %49
  br label %73

73:                                               ; preds = %72, %67, %44
  br label %74

74:                                               ; preds = %73, %14
  %75 = load i32, ptr %6, align 4, !tbaa !3
  call void @llvm.lifetime.end.p0(i64 1, ptr %7) #4
  call void @llvm.lifetime.end.p0(i64 4, ptr %6) #4
  call void @llvm.lifetime.end.p0(i64 16, ptr %5) #4
  ret i32 %75
}