; Function Attrs: nounwind uwtable
define internal range(i32 -1, 1) i32 @H5M__close_cb(ptr noundef %0, ptr noundef %1) #0 {
  %3 = alloca %struct.H5VL_optional_args_t, align 8
  call void @llvm.lifetime.start.p0(i64 16, ptr nonnull %3) #3
  %4 = load i8, ptr @H5M_init_g, align 1, !tbaa !3, !range !7, !noundef !8
  %5 = trunc nuw i8 %4 to i1
  %6 = load i8, ptr @H5_libterm_g, align 1, !range !7
  %7 = trunc nuw i8 %6 to i1
  %8 = xor i1 %7, true
  %9 = select i1 %5, i1 true, i1 %8
  br i1 %9, label %10, label %26, !prof !9

10:                                               ; preds = %2
  store i32 9, ptr %3, align 8, !tbaa !13
  %11 = getelementptr inbounds nuw i8, ptr %3, i64 8
  store ptr null, ptr %11, align 8, !tbaa !17
  %12 = load i64, ptr @H5P_LST_DATASET_XFER_ID_g, align 8, !tbaa !10
  %13 = call i32 @H5VL_optional(ptr noundef %0, ptr noundef nonnull %3, i64 noundef %12, ptr noundef %1) #3
  %14 = icmp slt i32 %13, 0
  br i1 %14, label %15, label %19

15:                                               ; preds = %10
  %16 = load i64, ptr @H5E_MAP_g, align 8, !tbaa !10
  %17 = load i64, ptr @H5E_CLOSEERROR_g, align 8, !tbaa !10
  %18 = call i32 (ptr, ptr, i32, i64, i64, ptr, ...) @H5E_printf_stack(ptr noundef nonnull @.str, ptr noundef nonnull @__func__.H5M__close_cb, i32 noundef 226, i64 noundef %16, i64 noundef %17, ptr noundef nonnull @.str.4) #3
  br label %26

19:                                               ; preds = %10
  %20 = call i32 @H5VL_free_object(ptr noundef %0) #3
  %21 = icmp slt i32 %20, 0
  br i1 %21, label %22, label %26

22:                                               ; preds = %19
  %23 = load i64, ptr @H5E_MAP_g, align 8, !tbaa !10
  %24 = load i64, ptr @H5E_CANTDEC_g, align 8, !tbaa !10
  %25 = call i32 (ptr, ptr, i32, i64, i64, ptr, ...) @H5E_printf_stack(ptr noundef nonnull @.str, ptr noundef nonnull @__func__.H5M__close_cb, i32 noundef 230, i64 noundef %23, i64 noundef %24, ptr noundef nonnull @.str.5) #3
  br label %26

26:                                               ; preds = %15, %22, %19, %2
  %.0 = phi i32 [ -1, %15 ], [ -1, %22 ], [ 0, %19 ], [ 0, %2 ]
  call void @llvm.lifetime.end.p0(i64 16, ptr nonnull %3) #3
  ret i32 %.0
}